target datalayout = "e-m:e-p270:32:32-p271:32:32-p272:64:64-i64:64-i128:128-f80:128-n8:16:32:64-S128"
target triple = "x86_64-pc-linux-gnu"

%struct.ParStruct = type { ptr, i32, i32, i32, i32, i32 }
%struct.Nwk_Man_t_ = type { ptr, ptr, ptr, ptr, ptr, [5 x i32], i32, ptr, ptr, ptr, ptr, ptr, i32, i32, i32, i32, i32 }

@Nwk_ManCompareAndSaveBest.ParsNew = internal global %struct.ParStruct zeroinitializer, align 8
@Nwk_ManCompareAndSaveBest.ParsBest = internal global { ptr, i32, i32, i32, i32, i32, [4 x i8] } zeroinitializer, align 8

; Function Attrs: inlinehint nounwind uwtable
define internal ptr @Abc_UtilStrsav(ptr noundef %0) #4 {
  %2 = alloca ptr, align 8
  store ptr %0, ptr %2, align 8, !tbaa !53
  %3 = load ptr, ptr %2, align 8, !tbaa !53
  %4 = icmp ne ptr %3, null
  br i1 %4, label %5, label %13

5:                                                ; preds = %1
  %6 = load ptr, ptr %2, align 8, !tbaa !53
  %7 = call i64 @strlen(ptr noundef %6) #11
  %8 = add i64 %7, 1
  %9 = mul i64 1, %8
  %10 = call noalias ptr @malloc(i64 noundef %9) #10
  %11 = load ptr, ptr %2, align 8, !tbaa !53
  %12 = call ptr @strcpy(ptr noundef %10, ptr noundef %11) #9
  br label %14

13:                                               ; preds = %1
  br label %14

14:                                               ; preds = %13, %5
  %15 = phi ptr [ %12, %5 ], [ null, %13 ]
  ret ptr %15
}

; Function Attrs: inlinehint nounwind uwtable
define internal i32 @Nwk_ManNodeNum(ptr noundef %0) #4 {
  %2 = alloca ptr, align 8
  store ptr %0, ptr %2, align 8, !tbaa !3
  %3 = load ptr, ptr %2, align 8, !tbaa !3
  %4 = getelementptr inbounds nuw %struct.Nwk_Man_t_, ptr %3, i32 0, i32 5
  %5 = getelementptr inbounds [5 x i32], ptr %4, i64 0, i64 3
  %6 = load i32, ptr %5, align 4, !tbaa !23
  ret i32 %6
}

; Function Attrs: inlinehint nounwind uwtable
define internal i32 @Nwk_ManLatchNum(ptr noundef %0) #4 {
  %2 = alloca ptr, align 8
  store ptr %0, ptr %2, align 8, !tbaa !3
  %3 = load ptr, ptr %2, align 8, !tbaa !3
  %4 = getelementptr inbounds nuw %struct.Nwk_Man_t_, ptr %3, i32 0, i32 5
  %5 = getelementptr inbounds [5 x i32], ptr %4, i64 0, i64 4
  %6 = load i32, ptr %5, align 8, !tbaa !23
  ret i32 %6
}

; Function Attrs: nounwind uwtable
define i32 @Nwk_ManCompareAndSaveBest(ptr noundef %0, ptr noundef %1) #0 {
  %3 = alloca i32, align 4
  %4 = alloca ptr, align 8
  %5 = alloca ptr, align 8
  store ptr %0, ptr %4, align 8, !tbaa !3
  store ptr %1, ptr %5, align 8, !tbaa !40
  %6 = load ptr, ptr %4, align 8, !tbaa !3
  %7 = icmp eq ptr %6, null
  br i1 %7, label %8, label %15

8:                                                ; preds = %2
  %9 = load ptr, ptr @Nwk_ManCompareAndSaveBest.ParsBest, align 8, !tbaa !46
  %10 = icmp ne ptr %9, null
  br i1 %10, label %11, label %13

11:                                               ; preds = %8
  %12 = load ptr, ptr @Nwk_ManCompareAndSaveBest.ParsBest, align 8, !tbaa !46
  call void @free(ptr noundef %12) #9
  store ptr null, ptr @Nwk_ManCompareAndSaveBest.ParsBest, align 8, !tbaa !46
  br label %14

13:                                               ; preds = %8
  br label %14

14:                                               ; preds = %13, %11
  store i32 0, ptr %3, align 4
  br label %76

15:                                               ; preds = %2
  %16 = load ptr, ptr %4, align 8, !tbaa !3
  %17 = call i32 @Nwk_ManLevel(ptr noundef %16)
  store i32 %17, ptr getelementptr inbounds nuw (%struct.ParStruct, ptr @Nwk_ManCompareAndSaveBest.ParsNew, i32 0, i32 1), align 8, !tbaa !48
  %18 = load ptr, ptr %4, align 8, !tbaa !3
  %19 = call i32 @Nwk_ManLatchNum(ptr noundef %18)
  store i32 %19, ptr getelementptr inbounds nuw (%struct.ParStruct, ptr @Nwk_ManCompareAndSaveBest.ParsNew, i32 0, i32 2), align 4, !tbaa !49
  %20 = load ptr, ptr %4, align 8, !tbaa !3
  %21 = call i32 @Nwk_ManNodeNum(ptr noundef %20)
  store i32 %21, ptr getelementptr inbounds nuw (%struct.ParStruct, ptr @Nwk_ManCompareAndSaveBest.ParsNew, i32 0, i32 3), align 8, !tbaa !50
  %22 = load ptr, ptr %4, align 8, !tbaa !3
  %23 = call i32 @Nwk_ManPiNum(ptr noundef %22)
  store i32 %23, ptr getelementptr inbounds nuw (%struct.ParStruct, ptr @Nwk_ManCompareAndSaveBest.ParsNew, i32 0, i32 4), align 4, !tbaa !51
  %24 = load ptr, ptr %4, align 8, !tbaa !3
  %25 = call i32 @Nwk_ManPoNum(ptr noundef %24)
  store i32 %25, ptr getelementptr inbounds nuw (%struct.ParStruct, ptr @Nwk_ManCompareAndSaveBest.ParsNew, i32 0, i32 5), align 8, !tbaa !52
  %26 = load ptr, ptr @Nwk_ManCompareAndSaveBest.ParsBest, align 8, !tbaa !46
  %27 = icmp eq ptr %26, null
  br i1 %27, label %59, label %28

28:                                               ; preds = %15
  %29 = load ptr, ptr @Nwk_ManCompareAndSaveBest.ParsBest, align 8, !tbaa !46
  %30 = load ptr, ptr %4, align 8, !tbaa !3
  %31 = getelementptr inbounds nuw %struct.Nwk_Man_t_, ptr %30, i32 0, i32 0
  %32 = load ptr, ptr %31, align 8, !tbaa !29
  %33 = call i32 @strcmp(ptr noundef %29, ptr noundef %32) #11
  %34 = icmp ne i32 %33, 0
  br i1 %34, label %59, label %35

35:                                               ; preds = %28
  %36 = load i32, ptr getelementptr inbounds nuw (%struct.ParStruct, ptr @Nwk_ManCompareAndSaveBest.ParsBest, i32 0, i32 1), align 8, !tbaa !48
  %37 = load i32, ptr getelementptr inbounds nuw (%struct.ParStruct, ptr @Nwk_ManCompareAndSaveBest.ParsNew, i32 0, i32 1), align 8, !tbaa !48
  %38 = icmp sgt i32 %36, %37
  br i1 %38, label %59, label %39

39:                                               ; preds = %35
  %40 = load i32, ptr getelementptr inbounds nuw (%struct.ParStruct, ptr @Nwk_ManCompareAndSaveBest.ParsBest, i32 0, i32 1), align 8, !tbaa !48
  %41 = load i32, ptr getelementptr inbounds nuw (%struct.ParStruct, ptr @Nwk_ManCompareAndSaveBest.ParsNew, i32 0, i32 1), align 8, !tbaa !48
  %42 = icmp eq i32 %40, %41
  br i1 %42, label %43, label %47

43:                                               ; preds = %39
  %44 = load i32, ptr getelementptr inbounds nuw (%struct.ParStruct, ptr @Nwk_ManCompareAndSaveBest.ParsBest, i32 0, i32 2), align 4, !tbaa !49
  %45 = load i32, ptr getelementptr inbounds nuw (%struct.ParStruct, ptr @Nwk_ManCompareAndSaveBest.ParsNew, i32 0, i32 2), align 4, !tbaa !49
  %46 = icmp sgt i32 %44, %45
  br i1 %46, label %59, label %47

47:                                               ; preds = %43, %39
  %48 = load i32, ptr getelementptr inbounds nuw (%struct.ParStruct, ptr @Nwk_ManCompareAndSaveBest.ParsBest, i32 0, i32 1), align 8, !tbaa !48
  %49 = load i32, ptr getelementptr inbounds nuw (%struct.ParStruct, ptr @Nwk_ManCompareAndSaveBest.ParsNew, i32 0, i32 1), align 8, !tbaa !48
  %50 = icmp eq i32 %48, %49
  br i1 %50, label %51, label %75

51:                                               ; preds = %47
  %52 = load i32, ptr getelementptr inbounds nuw (%struct.ParStruct, ptr @Nwk_ManCompareAndSaveBest.ParsBest, i32 0, i32 2), align 4, !tbaa !49
  %53 = load i32, ptr getelementptr inbounds nuw (%struct.ParStruct, ptr @Nwk_ManCompareAndSaveBest.ParsNew, i32 0, i32 2), align 4, !tbaa !49
  %54 = icmp eq i32 %52, %53
  br i1 %54, label %55, label %75

55:                                               ; preds = %51
  %56 = load i32, ptr getelementptr inbounds nuw (%struct.ParStruct, ptr @Nwk_ManCompareAndSaveBest.ParsBest, i32 0, i32 3), align 8, !tbaa !50
  %57 = load i32, ptr getelementptr inbounds nuw (%struct.ParStruct, ptr @Nwk_ManCompareAndSaveBest.ParsNew, i32 0, i32 3), align 8, !tbaa !50
  %58 = icmp sgt i32 %56, %57
  br i1 %58, label %59, label %75

59:                                               ; preds = %55, %43, %35, %28, %15
  %60 = load ptr, ptr @Nwk_ManCompareAndSaveBest.ParsBest, align 8, !tbaa !46
  %61 = icmp ne ptr %60, null
  br i1 %61, label %62, label %64

62:                                               ; preds = %59
  %63 = load ptr, ptr @Nwk_ManCompareAndSaveBest.ParsBest, align 8, !tbaa !46
  call void @free(ptr noundef %63) #9
  store ptr null, ptr @Nwk_ManCompareAndSaveBest.ParsBest, align 8, !tbaa !46
  br label %65

64:                                               ; preds = %59
  br label %65

65:                                               ; preds = %64, %62
  %66 = load ptr, ptr %4, align 8, !tbaa !3
  %67 = getelementptr inbounds nuw %struct.Nwk_Man_t_, ptr %66, i32 0, i32 0
  %68 = load ptr, ptr %67, align 8, !tbaa !29
  %69 = call ptr @Abc_UtilStrsav(ptr noundef %68)
  store ptr %69, ptr @Nwk_ManCompareAndSaveBest.ParsBest, align 8, !tbaa !46
  %70 = load i32, ptr getelementptr inbounds nuw (%struct.ParStruct, ptr @Nwk_ManCompareAndSaveBest.ParsNew, i32 0, i32 1), align 8, !tbaa !48
  store i32 %70, ptr getelementptr inbounds nuw (%struct.ParStruct, ptr @Nwk_ManCompareAndSaveBest.ParsBest, i32 0, i32 1), align 8, !tbaa !48
  %71 = load i32, ptr getelementptr inbounds nuw (%struct.ParStruct, ptr @Nwk_ManCompareAndSaveBest.ParsNew, i32 0, i32 2), align 4, !tbaa !49
  store i32 %71, ptr getelementptr inbounds nuw (%struct.ParStruct, ptr @Nwk_ManCompareAndSaveBest.ParsBest, i32 0, i32 2), align 4, !tbaa !49
  %72 = load i32, ptr getelementptr inbounds nuw (%struct.ParStruct, ptr @Nwk_ManCompareAndSaveBest.ParsNew, i32 0, i32 3), align 8, !tbaa !50
  store i32 %72, ptr getelementptr inbounds nuw (%struct.ParStruct, ptr @Nwk_ManCompareAndSaveBest.ParsBest, i32 0, i32 3), align 8, !tbaa !50
  %73 = load i32, ptr getelementptr inbounds nuw (%struct.ParStruct, ptr @Nwk_ManCompareAndSaveBest.ParsNew, i32 0, i32 4), align 4, !tbaa !51
  store i32 %73, ptr getelementptr inbounds nuw (%struct.ParStruct, ptr @Nwk_ManCompareAndSaveBest.ParsBest, i32 0, i32 4), align 4, !tbaa !51
  %74 = load i32, ptr getelementptr inbounds nuw (%struct.ParStruct, ptr @Nwk_ManCompareAndSaveBest.ParsNew, i32 0, i32 5), align 8, !tbaa !52
  store i32 %74, ptr getelementptr inbounds nuw (%struct.ParStruct, ptr @Nwk_ManCompareAndSaveBest.ParsBest, i32 0, i32 5), align 8, !tbaa !52
  store i32 1, ptr %3, align 4
  br label %76

75:                                               ; preds = %55, %51, %47
  store i32 0, ptr %3, align 4
  br label %76

76:                                               ; preds = %75, %65, %14
  %77 = load i32, ptr %3, align 4
  ret i32 %77
}