; Function Attrs: nounwind uwtable
define range(i32 0, 2) i32 @Nwk_ManCompareAndSaveBest(ptr noundef %0, ptr readnone captures(none) %1) local_unnamed_addr #0 {
  %3 = icmp eq ptr %0, null
  br i1 %3, label %4, label %7

4:                                                ; preds = %2
  %5 = load ptr, ptr @Nwk_ManCompareAndSaveBest.ParsBest.0, align 8, !tbaa !41
  %.not15 = icmp eq ptr %5, null
  br i1 %.not15, label %46, label %6

6:                                                ; preds = %4
  tail call void @free(ptr noundef nonnull %5) #15
  store ptr null, ptr @Nwk_ManCompareAndSaveBest.ParsBest.0, align 8, !tbaa !41
  br label %46

7:                                                ; preds = %2
  %8 = tail call i32 @Nwk_ManLevel(ptr noundef nonnull %0) #15
  store i32 %8, ptr @Nwk_ManCompareAndSaveBest.ParsNew.0, align 8, !tbaa !43
  %9 = getelementptr i8, ptr %0, i64 56
  %.val = load i32, ptr %9, align 8, !tbaa !35
  store i32 %.val, ptr @Nwk_ManCompareAndSaveBest.ParsNew.1, align 4, !tbaa !44
  %10 = getelementptr i8, ptr %0, i64 52
  %.val16 = load i32, ptr %10, align 4, !tbaa !35
  store i32 %.val16, ptr @Nwk_ManCompareAndSaveBest.ParsNew.2, align 8, !tbaa !45
  %11 = tail call i32 @Nwk_ManPiNum(ptr noundef nonnull %0) #15
  %12 = tail call i32 @Nwk_ManPoNum(ptr noundef nonnull %0) #15
  %13 = load ptr, ptr @Nwk_ManCompareAndSaveBest.ParsBest.0, align 8, !tbaa !41
  %14 = icmp eq ptr %13, null
  br i1 %14, label %35, label %15

15:                                               ; preds = %7
  %16 = load ptr, ptr %0, align 8, !tbaa !25
  %17 = tail call i32 @strcmp(ptr noundef nonnull dereferenceable(1) %13, ptr noundef nonnull dereferenceable(1) %16) #16
  %.not = icmp eq i32 %17, 0
  br i1 %.not, label %18, label %34

18:                                               ; preds = %15
  %19 = load i32, ptr @Nwk_ManCompareAndSaveBest.ParsBest.1, align 8, !tbaa !43
  %20 = load i32, ptr @Nwk_ManCompareAndSaveBest.ParsNew.0, align 8, !tbaa !43
  %21 = icmp sgt i32 %19, %20
  br i1 %21, label %34, label %22

22:                                               ; preds = %18
  %23 = icmp eq i32 %19, %20
  br i1 %23, label %24, label %46

24:                                               ; preds = %22
  %25 = load i32, ptr @Nwk_ManCompareAndSaveBest.ParsBest.2, align 4, !tbaa !44
  %26 = load i32, ptr @Nwk_ManCompareAndSaveBest.ParsNew.1, align 4, !tbaa !44
  %27 = icmp sgt i32 %25, %26
  br i1 %27, label %34, label %28

28:                                               ; preds = %24
  %29 = icmp eq i32 %25, %26
  br i1 %29, label %30, label %46

30:                                               ; preds = %28
  %31 = load i32, ptr @Nwk_ManCompareAndSaveBest.ParsBest.3, align 8, !tbaa !45
  %32 = load i32, ptr @Nwk_ManCompareAndSaveBest.ParsNew.2, align 8, !tbaa !45
  %33 = icmp sgt i32 %31, %32
  br i1 %33, label %34, label %46

34:                                               ; preds = %30, %24, %18, %15
  tail call void @free(ptr noundef nonnull %13) #15
  br label %35

35:                                               ; preds = %7, %34
  %36 = load ptr, ptr %0, align 8, !tbaa !25
  %.not.i = icmp eq ptr %36, null
  br i1 %.not.i, label %Abc_UtilStrsav.exit, label %37

37:                                               ; preds = %35
  %38 = tail call i64 @strlen(ptr noundef nonnull readonly dereferenceable(1) %36) #16
  %39 = add i64 %38, 1
  %40 = tail call noalias ptr @malloc(i64 noundef %39) #14
  %41 = tail call ptr @strcpy(ptr noundef nonnull dereferenceable(1) %40, ptr noundef nonnull readonly dereferenceable(1) %36) #15
  br label %Abc_UtilStrsav.exit

Abc_UtilStrsav.exit:                              ; preds = %35, %37
  %42 = phi ptr [ %40, %37 ], [ null, %35 ]
  store ptr %42, ptr @Nwk_ManCompareAndSaveBest.ParsBest.0, align 8, !tbaa !41
  %43 = load i32, ptr @Nwk_ManCompareAndSaveBest.ParsNew.0, align 8, !tbaa !43
  store i32 %43, ptr @Nwk_ManCompareAndSaveBest.ParsBest.1, align 8, !tbaa !43
  %44 = load i32, ptr @Nwk_ManCompareAndSaveBest.ParsNew.1, align 4, !tbaa !44
  store i32 %44, ptr @Nwk_ManCompareAndSaveBest.ParsBest.2, align 4, !tbaa !44
  %45 = load i32, ptr @Nwk_ManCompareAndSaveBest.ParsNew.2, align 8, !tbaa !45
  store i32 %45, ptr @Nwk_ManCompareAndSaveBest.ParsBest.3, align 8, !tbaa !45
  br label %46

46:                                               ; preds = %22, %28, %30, %6, %4, %Abc_UtilStrsav.exit
  %.0 = phi i32 [ 1, %Abc_UtilStrsav.exit ], [ 0, %4 ], [ 0, %6 ], [ 0, %30 ], [ 0, %28 ], [ 0, %22 ]
  ret i32 %.0
}